; ModuleID = 'source-C-CXX/52/1570.c'
source_filename = "source-C-CXX/52/1570.c"
target datalayout = "e-m:e-p270:32:32-p271:32:32-p272:64:64-i64:64-f80:128-n8:16:32:64-S128"
target triple = "x86_64-pc-linux-gnu"

@.str = private unnamed_addr constant [3 x i8] c"%d\00", align 1
@.str.1 = private unnamed_addr constant [4 x i8] c"%d,\00", align 1

; Function Attrs: nofree nounwind sspstrong uwtable
define dso_local i32 @main() local_unnamed_addr #0 {
  %1 = alloca i32, align 4
  %2 = alloca [1000 x i32], align 16
  %3 = alloca i32, align 4
  %4 = alloca [1000 x i32], align 16
  %5 = bitcast i32* %1 to i8*
  call void @llvm.lifetime.start.p0i8(i64 4, i8* nonnull %5) #4
  %6 = bitcast [1000 x i32]* %2 to i8*
  call void @llvm.lifetime.start.p0i8(i64 4000, i8* nonnull %6) #4
  call void @llvm.memset.p0i8.i64(i8* noundef nonnull align 16 dereferenceable(4000) %6, i8 0, i64 4000, i1 false)
  %7 = bitcast i32* %3 to i8*
  call void @llvm.lifetime.start.p0i8(i64 4, i8* nonnull %7) #4
  %8 = bitcast [1000 x i32]* %4 to i8*
  call void @llvm.lifetime.start.p0i8(i64 4000, i8* nonnull %8) #4
  %9 = call i32 (i8*, ...) @__isoc99_scanf(i8* getelementptr inbounds ([3 x i8], [3 x i8]* @.str, i64 0, i64 0), i32* nonnull %1)
  %10 = load i32, i32* %1, align 4, !tbaa !5
  %11 = icmp slt i32 %10, 1
  br i1 %11, label %42, label %17

12:                                               ; preds = %30
  %13 = add i32 %31, -1
  %14 = icmp sgt i32 %31, 2
  br i1 %14, label %15, label %42

15:                                               ; preds = %12
  %16 = zext i32 %13 to i64
  br label %35

17:                                               ; preds = %0, %30
  %18 = phi i32 [ %31, %30 ], [ 1, %0 ]
  %19 = phi i32 [ %32, %30 ], [ 1, %0 ]
  %20 = call i32 (i8*, ...) @__isoc99_scanf(i8* getelementptr inbounds ([3 x i8], [3 x i8]* @.str, i64 0, i64 0), i32* nonnull %3)
  %21 = load i32, i32* %3, align 4, !tbaa !5
  %22 = sext i32 %21 to i64
  %23 = getelementptr inbounds [1000 x i32], [1000 x i32]* %2, i64 0, i64 %22
  %24 = load i32, i32* %23, align 4, !tbaa !5
  %25 = icmp eq i32 %24, 1
  br i1 %25, label %30, label %26

26:                                               ; preds = %17
  %27 = sext i32 %18 to i64
  %28 = getelementptr inbounds [1000 x i32], [1000 x i32]* %4, i64 0, i64 %27
  store i32 %21, i32* %28, align 4, !tbaa !5
  %29 = add nsw i32 %18, 1
  store i32 1, i32* %23, align 4, !tbaa !5
  br label %30

30:                                               ; preds = %17, %26
  %31 = phi i32 [ %29, %26 ], [ %18, %17 ]
  %32 = add nuw nsw i32 %19, 1
  %33 = load i32, i32* %1, align 4, !tbaa !5
  %34 = icmp slt i32 %19, %33
  br i1 %34, label %17, label %12, !llvm.loop !9

35:                                               ; preds = %15, %35
  %36 = phi i64 [ 1, %15 ], [ %40, %35 ]
  %37 = getelementptr inbounds [1000 x i32], [1000 x i32]* %4, i64 0, i64 %36
  %38 = load i32, i32* %37, align 4, !tbaa !5
  %39 = call i32 (i8*, ...) @printf(i8* nonnull dereferenceable(1) getelementptr inbounds ([4 x i8], [4 x i8]* @.str.1, i64 0, i64 0), i32 %38)
  %40 = add nuw nsw i64 %36, 1
  %41 = icmp eq i64 %40, %16
  br i1 %41, label %42, label %35, !llvm.loop !11

42:                                               ; preds = %35, %0, %12
  %43 = phi i32 [ %13, %12 ], [ 0, %0 ], [ %13, %35 ]
  %44 = sext i32 %43 to i64
  %45 = getelementptr inbounds [1000 x i32], [1000 x i32]* %4, i64 0, i64 %44
  %46 = load i32, i32* %45, align 4, !tbaa !5
  %47 = call i32 (i8*, ...) @printf(i8* nonnull dereferenceable(1) getelementptr inbounds ([3 x i8], [3 x i8]* @.str, i64 0, i64 0), i32 %46)
  call void @llvm.lifetime.end.p0i8(i64 4000, i8* nonnull %8) #4
  call void @llvm.lifetime.end.p0i8(i64 4, i8* nonnull %7) #4
  call void @llvm.lifetime.end.p0i8(i64 4000, i8* nonnull %6) #4
  call void @llvm.lifetime.end.p0i8(i64 4, i8* nonnull %5) #4
  ret i32 0
}

; Function Attrs: argmemonly mustprogress nofree nosync nounwind willreturn
declare void @llvm.lifetime.start.p0i8(i64 immarg, i8* nocapture) #1

; Function Attrs: argmemonly mustprogress nofree nounwind willreturn writeonly
declare void @llvm.memset.p0i8.i64(i8* nocapture writeonly, i8, i64, i1 immarg) #2

; Function Attrs: nofree nounwind
declare noundef i32 @__isoc99_scanf(i8* nocapture noundef readonly, ...) local_unnamed_addr #3

; Function Attrs: nofree nounwind
declare noundef i32 @printf(i8* nocapture noundef readonly, ...) local_unnamed_addr #3

; Function Attrs: argmemonly mustprogress nofree nosync nounwind willreturn
declare void @llvm.lifetime.end.p0i8(i64 immarg, i8* nocapture) #1


!llvm.module.flags = !{!0, !1, !2, !3}
!llvm.ident = !{!4}

!0 = !{i32 1, !"wchar_size", i32 4}
!1 = !{i32 7, !"PIC Level", i32 2}
!2 = !{i32 7, !"PIE Level", i32 2}
!3 = !{i32 7, !"uwtable", i32 1}
!4 = !{!"clang version 13.0.0"}
!5 = !{!6, !6, i64 0}
!6 = !{!"int", !7, i64 0}
!7 = !{!"omnipotent char", !8, i64 0}
!8 = !{!"Simple C/C++ TBAA"}
!9 = distinct !{!9, !10}
!10 = !{!"llvm.loop.mustprogress"}
!11 = distinct !{!11, !10}
